target datalayout = "e-m:e-p270:32:32-p271:32:32-p272:64:64-i64:64-i128:128-f80:128-n8:16:32:64-S128"
target triple = "x86_64-pc-linux-gnu"

; Function Attrs: mustprogress nounwind uwtable
define noundef i64 @_ZN6casadi16SparsityInternal13postorder_dfsExxPxPKxS1_S1_(i64 noundef %0, i64 noundef %1, ptr noundef %2, ptr noundef %3, ptr noundef %4, ptr noundef %5) #4 align 2 {
  %7 = alloca i64, align 8
  %8 = alloca i64, align 8
  %9 = alloca ptr, align 8
  %10 = alloca ptr, align 8
  %11 = alloca ptr, align 8
  %12 = alloca ptr, align 8
  %13 = alloca i64, align 8
  %14 = alloca i64, align 8
  %15 = alloca i64, align 8
  store i64 %0, ptr %7, align 8
  store i64 %1, ptr %8, align 8
  store ptr %2, ptr %9, align 8
  store ptr %3, ptr %10, align 8
  store ptr %4, ptr %11, align 8
  store ptr %5, ptr %12, align 8
  store i64 0, ptr %15, align 8
  %16 = load i64, ptr %7, align 8
  %17 = load ptr, ptr %12, align 8
  %18 = getelementptr inbounds i64, ptr %17, i64 0
  store i64 %16, ptr %18, align 8
  br label %19

19:                                               ; preds = %54, %6
  %20 = load i64, ptr %15, align 8
  %21 = icmp sge i64 %20, 0
  br i1 %21, label %22, label %55

22:                                               ; preds = %19
  %23 = load ptr, ptr %12, align 8
  %24 = load i64, ptr %15, align 8
  %25 = getelementptr inbounds i64, ptr %23, i64 %24
  %26 = load i64, ptr %25, align 8
  store i64 %26, ptr %14, align 8
  %27 = load ptr, ptr %9, align 8
  %28 = load i64, ptr %14, align 8
  %29 = getelementptr inbounds i64, ptr %27, i64 %28
  %30 = load i64, ptr %29, align 8
  store i64 %30, ptr %13, align 8
  %31 = load i64, ptr %13, align 8
  %32 = icmp eq i64 %31, -1
  br i1 %32, label %33, label %41

33:                                               ; preds = %22
  %34 = load i64, ptr %15, align 8
  %35 = add nsw i64 %34, -1
  store i64 %35, ptr %15, align 8
  %36 = load i64, ptr %14, align 8
  %37 = load ptr, ptr %11, align 8
  %38 = load i64, ptr %8, align 8
  %39 = add nsw i64 %38, 1
  store i64 %39, ptr %8, align 8
  %40 = getelementptr inbounds i64, ptr %37, i64 %38
  store i64 %36, ptr %40, align 8
  br label %54

41:                                               ; preds = %22
  %42 = load ptr, ptr %10, align 8
  %43 = load i64, ptr %13, align 8
  %44 = getelementptr inbounds i64, ptr %42, i64 %43
  %45 = load i64, ptr %44, align 8
  %46 = load ptr, ptr %9, align 8
  %47 = load i64, ptr %14, align 8
  %48 = getelementptr inbounds i64, ptr %46, i64 %47
  store i64 %45, ptr %48, align 8
  %49 = load i64, ptr %13, align 8
  %50 = load ptr, ptr %12, align 8
  %51 = load i64, ptr %15, align 8
  %52 = add nsw i64 %51, 1
  store i64 %52, ptr %15, align 8
  %53 = getelementptr inbounds i64, ptr %50, i64 %52
  store i64 %49, ptr %53, align 8
  br label %54

54:                                               ; preds = %41, %33
  br label %19, !llvm.loop !9

55:                                               ; preds = %19
  %56 = load i64, ptr %8, align 8
  ret i64 %56
}