; Function Attrs: mustprogress nofree norecurse nosync nounwind memory(argmem: readwrite) uwtable
define noundef i64 @_ZN6casadi16SparsityInternal13postorder_dfsExxPxPKxS1_S1_(i64 noundef %0, i64 noundef %1, ptr nocapture noundef %2, ptr nocapture noundef readonly %3, ptr nocapture noundef writeonly %4, ptr nocapture noundef %5) local_unnamed_addr #3 align 2 {
  store i64 %0, ptr %5, align 8
  br label %7

7:                                                ; preds = %6, %22
  %.023 = phi i64 [ 0, %6 ], [ %.1, %22 ]
  %.01922 = phi i64 [ %1, %6 ], [ %.120, %22 ]
  %8 = getelementptr inbounds i64, ptr %5, i64 %.023
  %9 = load i64, ptr %8, align 8
  %10 = getelementptr inbounds i64, ptr %2, i64 %9
  %11 = load i64, ptr %10, align 8
  %12 = icmp eq i64 %11, -1
  br i1 %12, label %13, label %17

13:                                               ; preds = %7
  %14 = add nsw i64 %.023, -1
  %15 = add nsw i64 %.01922, 1
  %16 = getelementptr inbounds i64, ptr %4, i64 %.01922
  store i64 %9, ptr %16, align 8
  br label %22

17:                                               ; preds = %7
  %18 = getelementptr inbounds i64, ptr %3, i64 %11
  %19 = load i64, ptr %18, align 8
  store i64 %19, ptr %10, align 8
  %20 = add nuw nsw i64 %.023, 1
  %21 = getelementptr inbounds i64, ptr %5, i64 %20
  store i64 %11, ptr %21, align 8
  br label %22

22:                                               ; preds = %17, %13
  %.120 = phi i64 [ %15, %13 ], [ %.01922, %17 ]
  %.1 = phi i64 [ %14, %13 ], [ %20, %17 ]
  %23 = icmp sgt i64 %.1, -1
  br i1 %23, label %7, label %24, !llvm.loop !8

24:                                               ; preds = %22
  ret i64 %.120
}